ARM GAS  C:\Users\botmo\AppData\Local\Temp\ccs5gN0U.s 			page 1


   1              		.syntax unified
   2              		.cpu cortex-m3
   3              		.fpu softvfp
   4              		.eabi_attribute 20, 1
   5              		.eabi_attribute 21, 1
   6              		.eabi_attribute 23, 3
   7              		.eabi_attribute 24, 1
   8              		.eabi_attribute 25, 1
   9              		.eabi_attribute 26, 1
  10              		.eabi_attribute 30, 1
  11              		.eabi_attribute 34, 1
  12              		.eabi_attribute 18, 4
  13              		.thumb
  14              		.syntax unified
  15              		.file	"main.c"
  16              		.text
  17              	.Ltext0:
  18              		.cfi_sections	.debug_frame
  19              		.section	.text.read_i2c_data,"ax",%progbits
  20              		.align	2
  21              		.thumb
  22              		.thumb_func
  23              		.type	read_i2c_data, %function
  24              	read_i2c_data:
  25              	.LFB65:
  26              		.file 1 "main.c"
   1:main.c        **** /******************************************************************************
   2:main.c        **** * 
   3:main.c        **** * @author  Pavel Arefyev
   4:main.c        **** * @name    TX00DB04 - Terrarium Automation project
   5:main.c        **** * @company Metropolia University of Applied Sciences
   6:main.c        **** * @date    14.05.2022
   7:main.c        **** *
   8:main.c        **** * This project implements simple Terrarium Automation as PSoC based device.
   9:main.c        **** * More information is available at: https://github.com/DedUndead/PSoC-Terrarium
  10:main.c        **** *
  11:main.c        **** * Project idea is an intellectual property of Antti Piironen, Principal Lecturer in Smart Systems E
  12:main.c        **** * Metropolia University of Applied Sciences, Finland, Uusimaa
  13:main.c        **** *
  14:main.c        **** *******************************************************************************/
  15:main.c        **** 
  16:main.c        **** #include "project.h"
  17:main.c        **** #include <stdio.h>
  18:main.c        **** 
  19:main.c        **** #define false             0
  20:main.c        **** #define true              1
  21:main.c        **** #define I2C_ERROR         0xc8     // An arbitary I2C error code
  22:main.c        **** #define MAX_BUFFER_LENGTH 50       // Maximum length of transmit buffer
  23:main.c        **** #define TC74_ADDRESS      0x4a     // I2C address of TC74 sensor
  24:main.c        **** #define TC74_TEMP_REG     0x00     // Temperature register of the sensor
  25:main.c        **** 
  26:main.c        **** static int16 read_i2c_data(uint8 slave_address, uint8 register_address);
  27:main.c        **** 
  28:main.c        **** int main()
  29:main.c        **** {
  30:main.c        ****     /* Enable global interrupts. */
  31:main.c        ****     CyGlobalIntEnable; 
ARM GAS  C:\Users\botmo\AppData\Local\Temp\ccs5gN0U.s 			page 2


  32:main.c        ****     
  33:main.c        ****     /* Start hardware components */
  34:main.c        ****     I2C_Start();
  35:main.c        ****     UART_Start();
  36:main.c        **** 
  37:main.c        ****     /* main Variable block */
  38:main.c        ****     char transmit_buffer[MAX_BUFFER_LENGTH];
  39:main.c        ****     int16 sample = 0;
  40:main.c        ****     
  41:main.c        ****     while (true) {
  42:main.c        ****         sample = read_i2c_data(TC74_ADDRESS, TC74_TEMP_REG);
  43:main.c        ****         sprintf(transmit_buffer, "%d\r\n", sample);
  44:main.c        ****         UART_PutString(transmit_buffer);
  45:main.c        ****         
  46:main.c        ****         CyDelay(1000);
  47:main.c        ****     }
  48:main.c        **** }
  49:main.c        **** 
  50:main.c        **** /*
  51:main.c        ****  * @brief Read i2c data from the slave
  52:main.c        ****  * @param slave_address    Address of target device on the bus
  53:main.c        ****  * @param register_address Address to read from
  54:main.c        ****  * @return                 Integer actual reading
  55:main.c        ****  */
  56:main.c        **** static int16 read_i2c_data(uint8 slave_address, uint8 register_address)
  57:main.c        **** {
  27              		.loc 1 57 0
  28              		.cfi_startproc
  29              		@ args = 0, pretend = 0, frame = 0
  30              		@ frame_needed = 0, uses_anonymous_args = 0
  31              	.LVL0:
  32 0000 38B5     		push	{r3, r4, r5, lr}
  33              		.cfi_def_cfa_offset 16
  34              		.cfi_offset 3, -16
  35              		.cfi_offset 4, -12
  36              		.cfi_offset 5, -8
  37              		.cfi_offset 14, -4
  38 0002 0446     		mov	r4, r0
  39 0004 0D46     		mov	r5, r1
  58:main.c        ****     uint8 status;
  59:main.c        ****     
  60:main.c        ****     // Send start bit and write bit
  61:main.c        ****     status = I2C_MasterSendStart(slave_address, I2C_WRITE_XFER_MODE);
  40              		.loc 1 61 0
  41 0006 0021     		movs	r1, #0
  42              	.LVL1:
  43 0008 FFF7FEFF 		bl	I2C_MasterSendStart
  44              	.LVL2:
  62:main.c        ****     // Write register address to the bus
  63:main.c        ****     status = I2C_MasterWriteByte(register_address);
  45              		.loc 1 63 0
  46 000c 2846     		mov	r0, r5
  47 000e FFF7FEFF 		bl	I2C_MasterWriteByte
  48              	.LVL3:
  64:main.c        ****     // Send restart condition with read bit
  65:main.c        ****     status = I2C_MasterSendRestart(slave_address, I2C_READ_XFER_MODE);
  49              		.loc 1 65 0
ARM GAS  C:\Users\botmo\AppData\Local\Temp\ccs5gN0U.s 			page 3


  50 0012 0121     		movs	r1, #1
  51 0014 2046     		mov	r0, r4
  52 0016 FFF7FEFF 		bl	I2C_MasterSendRestart
  53              	.LVL4:
  66:main.c        ****     // Check if any errors occured during the operation
  67:main.c        ****     if (status != I2C_MSTR_NO_ERROR) return I2C_ERROR;
  54              		.loc 1 67 0
  55 001a 30B9     		cbnz	r0, .L3
  68:main.c        ****     
  69:main.c        ****     // Read one byte and send NAK
  70:main.c        ****     uint8 reading = I2C_MasterReadByte(I2C_NAK_DATA);
  56              		.loc 1 70 0
  57 001c FFF7FEFF 		bl	I2C_MasterReadByte
  58              	.LVL5:
  59 0020 0446     		mov	r4, r0
  60              	.LVL6:
  71:main.c        ****     I2C_MasterSendStop();  // Send stop bit
  61              		.loc 1 71 0
  62 0022 FFF7FEFF 		bl	I2C_MasterSendStop
  63              	.LVL7:
  72:main.c        ****     
  73:main.c        ****     /* Two's complenment -> integer cast */
  74:main.c        ****     if (reading & 0x80) reading = -~(reading - 1);
  75:main.c        ****     
  76:main.c        ****     return reading;   
  64              		.loc 1 76 0
  65 0026 20B2     		sxth	r0, r4
  66 0028 38BD     		pop	{r3, r4, r5, pc}
  67              	.LVL8:
  68              	.L3:
  67:main.c        ****     
  69              		.loc 1 67 0
  70 002a C820     		movs	r0, #200
  71              	.LVL9:
  77:main.c        **** }
  72              		.loc 1 77 0
  73 002c 38BD     		pop	{r3, r4, r5, pc}
  74              		.cfi_endproc
  75              	.LFE65:
  76              		.size	read_i2c_data, .-read_i2c_data
  77 002e 00BF     		.section	.text.main,"ax",%progbits
  78              		.align	2
  79              		.global	main
  80              		.thumb
  81              		.thumb_func
  82              		.type	main, %function
  83              	main:
  84              	.LFB64:
  29:main.c        ****     /* Enable global interrupts. */
  85              		.loc 1 29 0
  86              		.cfi_startproc
  87              		@ args = 0, pretend = 0, frame = 56
  88              		@ frame_needed = 0, uses_anonymous_args = 0
  89 0000 00B5     		push	{lr}
  90              		.cfi_def_cfa_offset 4
  91              		.cfi_offset 14, -4
  92 0002 8FB0     		sub	sp, sp, #60
ARM GAS  C:\Users\botmo\AppData\Local\Temp\ccs5gN0U.s 			page 4


  93              		.cfi_def_cfa_offset 64
  31:main.c        ****     
  94              		.loc 1 31 0
  95              		.syntax unified
  96              	@ 31 "main.c" 1
  97 0004 62B6     		CPSIE   i
  98              	@ 0 "" 2
  34:main.c        ****     UART_Start();
  99              		.loc 1 34 0
 100              		.thumb
 101              		.syntax unified
 102 0006 FFF7FEFF 		bl	I2C_Start
 103              	.LVL10:
  35:main.c        **** 
 104              		.loc 1 35 0
 105 000a FFF7FEFF 		bl	UART_Start
 106              	.LVL11:
 107              	.L6:
  42:main.c        ****         sprintf(transmit_buffer, "%d\r\n", sample);
 108              		.loc 1 42 0 discriminator 1
 109 000e 0021     		movs	r1, #0
 110 0010 4A20     		movs	r0, #74
 111 0012 FFF7FEFF 		bl	read_i2c_data
 112              	.LVL12:
  43:main.c        ****         UART_PutString(transmit_buffer);
 113              		.loc 1 43 0 discriminator 1
 114 0016 0246     		mov	r2, r0
 115 0018 0549     		ldr	r1, .L8
 116 001a 01A8     		add	r0, sp, #4
 117              	.LVL13:
 118 001c FFF7FEFF 		bl	sprintf
 119              	.LVL14:
  44:main.c        ****         
 120              		.loc 1 44 0 discriminator 1
 121 0020 01A8     		add	r0, sp, #4
 122 0022 FFF7FEFF 		bl	UART_PutString
 123              	.LVL15:
  46:main.c        ****     }
 124              		.loc 1 46 0 discriminator 1
 125 0026 4FF47A70 		mov	r0, #1000
 126 002a FFF7FEFF 		bl	CyDelay
 127              	.LVL16:
 128 002e EEE7     		b	.L6
 129              	.L9:
 130              		.align	2
 131              	.L8:
 132 0030 00000000 		.word	.LC0
 133              		.cfi_endproc
 134              	.LFE64:
 135              		.size	main, .-main
 136              		.section	.rodata.str1.4,"aMS",%progbits,1
 137              		.align	2
 138              	.LC0:
 139 0000 25640D0A 		.ascii	"%d\015\012\000"
 139      00
 140              		.text
 141              	.Letext0:
ARM GAS  C:\Users\botmo\AppData\Local\Temp\ccs5gN0U.s 			page 5


 142              		.file 2 "c:\\program files (x86)\\cypress\\psoc creator\\4.4\\psoc creator\\import\\gnu\\arm\\5.4.
 143              		.file 3 "c:\\program files (x86)\\cypress\\psoc creator\\4.4\\psoc creator\\import\\gnu\\arm\\5.4.
 144              		.file 4 "Generated_Source\\PSoC5/cytypes.h"
 145              		.file 5 "Generated_Source\\PSoC5/I2C.h"
 146              		.file 6 "Generated_Source\\PSoC5/UART.h"
 147              		.file 7 "c:\\program files (x86)\\cypress\\psoc creator\\4.4\\psoc creator\\import\\gnu\\arm\\5.4.
 148              		.file 8 "Generated_Source\\PSoC5/CyLib.h"
 149              		.file 9 "Generated_Source\\PSoC5/core_cm3.h"